
SpecialMaths:     file format elf64-x86-64


Disassembly of section .init:

0000000000001000 <_init>:
    1000:	f3 0f 1e fa          	endbr64
    1004:	48 83 ec 08          	sub    rsp,0x8
    1008:	48 8b 05 c1 2f 00 00 	mov    rax,QWORD PTR [rip+0x2fc1]        # 3fd0 <__gmon_start__@Base>
    100f:	48 85 c0             	test   rax,rax
    1012:	74 02                	je     1016 <_init+0x16>
    1014:	ff d0                	call   rax
    1016:	48 83 c4 08          	add    rsp,0x8
    101a:	c3                   	ret

Disassembly of section .plt:

0000000000001020 <atoi@plt-0x10>:
    1020:	ff 35 ca 2f 00 00    	push   QWORD PTR [rip+0x2fca]        # 3ff0 <_GLOBAL_OFFSET_TABLE_+0x8>
    1026:	ff 25 cc 2f 00 00    	jmp    QWORD PTR [rip+0x2fcc]        # 3ff8 <_GLOBAL_OFFSET_TABLE_+0x10>
    102c:	0f 1f 40 00          	nop    DWORD PTR [rax+0x0]

0000000000001030 <atoi@plt>:
    1030:	ff 25 ca 2f 00 00    	jmp    QWORD PTR [rip+0x2fca]        # 4000 <atoi@GLIBC_2.2.5>
    1036:	68 00 00 00 00       	push   0x0
    103b:	e9 e0 ff ff ff       	jmp    1020 <_init+0x20>

Disassembly of section .text:

0000000000001040 <_start>:
    1040:	f3 0f 1e fa          	endbr64
    1044:	31 ed                	xor    ebp,ebp
    1046:	49 89 d1             	mov    r9,rdx
    1049:	5e                   	pop    rsi
    104a:	48 89 e2             	mov    rdx,rsp
    104d:	48 83 e4 f0          	and    rsp,0xfffffffffffffff0
    1051:	50                   	push   rax
    1052:	54                   	push   rsp
    1053:	45 31 c0             	xor    r8d,r8d
    1056:	31 c9                	xor    ecx,ecx
    1058:	48 8d 3d da 00 00 00 	lea    rdi,[rip+0xda]        # 1139 <main>
    105f:	ff 15 5b 2f 00 00    	call   QWORD PTR [rip+0x2f5b]        # 3fc0 <__libc_start_main@GLIBC_2.34>
    1065:	f4                   	hlt
    1066:	66 2e 0f 1f 84 00 00 	cs nop WORD PTR [rax+rax*1+0x0]
    106d:	00 00 00 
    1070:	48 8d 3d a1 2f 00 00 	lea    rdi,[rip+0x2fa1]        # 4018 <__TMC_END__>
    1077:	48 8d 05 9a 2f 00 00 	lea    rax,[rip+0x2f9a]        # 4018 <__TMC_END__>
    107e:	48 39 f8             	cmp    rax,rdi
    1081:	74 15                	je     1098 <_start+0x58>
    1083:	48 8b 05 3e 2f 00 00 	mov    rax,QWORD PTR [rip+0x2f3e]        # 3fc8 <_ITM_deregisterTMCloneTable@Base>
    108a:	48 85 c0             	test   rax,rax
    108d:	74 09                	je     1098 <_start+0x58>
    108f:	ff e0                	jmp    rax
    1091:	0f 1f 80 00 00 00 00 	nop    DWORD PTR [rax+0x0]
    1098:	c3                   	ret
    1099:	0f 1f 80 00 00 00 00 	nop    DWORD PTR [rax+0x0]
    10a0:	48 8d 3d 71 2f 00 00 	lea    rdi,[rip+0x2f71]        # 4018 <__TMC_END__>
    10a7:	48 8d 35 6a 2f 00 00 	lea    rsi,[rip+0x2f6a]        # 4018 <__TMC_END__>
    10ae:	48 29 fe             	sub    rsi,rdi
    10b1:	48 89 f0             	mov    rax,rsi
    10b4:	48 c1 ee 3f          	shr    rsi,0x3f
    10b8:	48 c1 f8 03          	sar    rax,0x3
    10bc:	48 01 c6             	add    rsi,rax
    10bf:	48 d1 fe             	sar    rsi,1
    10c2:	74 14                	je     10d8 <_start+0x98>
    10c4:	48 8b 05 0d 2f 00 00 	mov    rax,QWORD PTR [rip+0x2f0d]        # 3fd8 <_ITM_registerTMCloneTable@Base>
    10cb:	48 85 c0             	test   rax,rax
    10ce:	74 08                	je     10d8 <_start+0x98>
    10d0:	ff e0                	jmp    rax
    10d2:	66 0f 1f 44 00 00    	nop    WORD PTR [rax+rax*1+0x0]
    10d8:	c3                   	ret
    10d9:	0f 1f 80 00 00 00 00 	nop    DWORD PTR [rax+0x0]
    10e0:	f3 0f 1e fa          	endbr64
    10e4:	80 3d 2d 2f 00 00 00 	cmp    BYTE PTR [rip+0x2f2d],0x0        # 4018 <__TMC_END__>
    10eb:	75 33                	jne    1120 <_start+0xe0>
    10ed:	55                   	push   rbp
    10ee:	48 83 3d ea 2e 00 00 	cmp    QWORD PTR [rip+0x2eea],0x0        # 3fe0 <__cxa_finalize@GLIBC_2.2.5>
    10f5:	00 
    10f6:	48 89 e5             	mov    rbp,rsp
    10f9:	74 0d                	je     1108 <_start+0xc8>
    10fb:	48 8b 3d 0e 2f 00 00 	mov    rdi,QWORD PTR [rip+0x2f0e]        # 4010 <__dso_handle>
    1102:	ff 15 d8 2e 00 00    	call   QWORD PTR [rip+0x2ed8]        # 3fe0 <__cxa_finalize@GLIBC_2.2.5>
    1108:	e8 63 ff ff ff       	call   1070 <_start+0x30>
    110d:	c6 05 04 2f 00 00 01 	mov    BYTE PTR [rip+0x2f04],0x1        # 4018 <__TMC_END__>
    1114:	5d                   	pop    rbp
    1115:	c3                   	ret
    1116:	66 2e 0f 1f 84 00 00 	cs nop WORD PTR [rax+rax*1+0x0]
    111d:	00 00 00 
    1120:	c3                   	ret
    1121:	0f 1f 40 00          	nop    DWORD PTR [rax+0x0]
    1125:	66 66 2e 0f 1f 84 00 	data16 cs nop WORD PTR [rax+rax*1+0x0]
    112c:	00 00 00 00 
    1130:	f3 0f 1e fa          	endbr64
    1134:	e9 67 ff ff ff       	jmp    10a0 <_start+0x60>

0000000000001139 <main>:
    1139:	55                   	push   rbp
    113a:	48 89 e5             	mov    rbp,rsp

    113d:	48 83 ec 20          	sub    rsp,0x20

    1141:	89 7d ec             	mov    DWORD PTR [rbp-0x14],edi ; int argc   	(4) 
    1144:	48 89 75 e0          	mov    QWORD PTR [rbp-0x20],rsi ; char **argv	(8)
	# 0x20 is 32. 
	# 0x14 is 20
	# diff = 12. 
	; 	=== high addresses ===
	; [rbp+?]  <- caller's rbp / return address (not shown)
	; ...
	; [rbp-0x14]  argc       ; 4 bytes
	; [rbp-0x18]  padding    ; 4 bytes (to align argv)
	; [rbp-0x1C]  padding    ; 4 bytes
	; [rbp-0x20]  argv[0..3] ; lower 4 bytes of argv pointer
	; [rbp-0x24]  argv[4..7] ; upper 4 bytes of argv pointer

	; === low addresses ===
	; --------------------- Note on Endianness ---------------------
	; ==============   x_86_64 is little endian. ==============
	; if it was big endian: 

	; [rbp-0x20]  argv[4..7] ; upper 4 bytes of argv pointer
	; [rbp-0x24]  argv[0..3] ; lower 4 bytes of argv pointer
	; --------------------- Note on Endianness ---------------------


	; int main(int argc, char** argv) 
	; {
	; 	int a;
	; 	//reminder: atoi() converts an
	; 	//ASCII string to an integer
	; 	a = atoi(argv[1]);
	; 	return 2 * argc + a;
	; }


	
	; we just did this. So we could have just move rsi to rax. 
    ; 1144:	48 89 75 e0          	mov    QWORD PTR [rbp-0x20],rsi ; char **argv	(8)
	; rax = &argv[1]
    1148:	48 8b 45 e0          	mov    rax,QWORD PTR [rbp-0x20] ; argv
    114c:	48 83 c0 08          	add    rax,0x8 ; argv[1]
	

	; rax = argv[1] which is a char *. 
    1150:	48 8b 00             	mov    rax,QWORD PTR [rax]

	
	; a = atoi(argv[1])
    1153:	48 89 c7             	mov    rdi,rax ; arg1 = argv[1]
    1156:	e8 d5 fe ff ff       	call   1030 <atoi@plt>
	; this will make eax/rax the result of it. So eax/rax = a

	; store the result (a) on memory
    115b:	89 45 fc             	mov    DWORD PTR [rbp-0x4],eax
	; eax = argc; rax = argc; 
    115e:	8b 45 ec             	mov    eax,DWORD PTR [rbp-0x14]

	; edx = argc +argc ; eax = 2*argc
    1161:	8d 14 00             	lea    edx,[rax+rax*1]
	; wants to do 2*argc + a .   a + argc*2 
	; could have just lea to do 2*argc + a, using: 
	; 115b    mov edx eax   ; edx = a 
	; 115e    mov ecx [rbp-0x14]  ; ecx = argc 
	; 1151    lea eax [edx + ecx*2] 

	; get the result back from memory. (It was saved in an unnamed local variable)
    1164:	8b 45 fc             	mov    eax,DWORD PTR [rbp-0x4] ; eax = a 

	; return 2*argc + a
    1167:	01 d0                	add    eax,edx ; eax (a) += 2*argc
    1169:	c9                   	leave
	# leave is equiv to "
	; mov rsp, rbp 
	; pop rbp

    116a:	c3                   	ret

Disassembly of section .fini:

000000000000116c <_fini>:
    116c:	f3 0f 1e fa          	endbr64
    1170:	48 83 ec 08          	sub    rsp,0x8
    1174:	48 83 c4 08          	add    rsp,0x8
    1178:	c3                   	ret
